; Function Attrs: nounwind uwtable
define dso_local ptr @dictGetVal(ptr noundef %0) local_unnamed_addr #3 {
  %2 = ptrtoint ptr %0 to i64
  %3 = and i64 %2, 7
  %.not = icmp eq i64 %3, 0
  br i1 %.not, label %5, label %4, !prof !25

4:                                                ; preds = %1
  tail call void @_serverAssert(ptr noundef nonnull @.str.9, ptr noundef nonnull @.str.1, i32 noundef 927) #25
  tail call void @abort() #27
  unreachable

5:                                                ; preds = %1
  %6 = getelementptr inbounds nuw i8, ptr %0, i64 8
  %7 = load ptr, ptr %6, align 8, !tbaa !13
  ret ptr %7
}